; Function Attrs: nounwind uwtable
define void @Gia_ManSuppStop(ptr noundef captures(none) %0) local_unnamed_addr #0 {
  %2 = getelementptr inbounds nuw i8, ptr %0, i64 16
  %3 = load ptr, ptr %2, align 8, !tbaa !18
  %4 = icmp eq ptr %3, null
  br i1 %4, label %Vec_IntFreeP.exit, label %5

5:                                                ; preds = %1
  %6 = getelementptr inbounds nuw i8, ptr %3, i64 8
  %7 = load ptr, ptr %6, align 8, !tbaa !17
  %.not.i = icmp eq ptr %7, null
  br i1 %.not.i, label %10, label %.thread.i

.thread.i:                                        ; preds = %5
  tail call void @free(ptr noundef nonnull %7) #17
  %8 = load ptr, ptr %2, align 8, !tbaa !18
  %9 = getelementptr inbounds nuw i8, ptr %8, i64 8
  store ptr null, ptr %9, align 8, !tbaa !17
  br label %10

10:                                               ; preds = %.thread.i, %5
  %11 = phi ptr [ %8, %.thread.i ], [ %3, %5 ]
  tail call void @free(ptr noundef nonnull %11) #17
  store ptr null, ptr %2, align 8, !tbaa !18
  br label %Vec_IntFreeP.exit

Vec_IntFreeP.exit:                                ; preds = %1, %10
  %12 = getelementptr inbounds nuw i8, ptr %0, i64 24
  %13 = load ptr, ptr %12, align 8, !tbaa !18
  %14 = icmp eq ptr %13, null
  br i1 %14, label %Vec_IntFreeP.exit13, label %15

15:                                               ; preds = %Vec_IntFreeP.exit
  %16 = getelementptr inbounds nuw i8, ptr %13, i64 8
  %17 = load ptr, ptr %16, align 8, !tbaa !17
  %.not.i11 = icmp eq ptr %17, null
  br i1 %.not.i11, label %20, label %.thread.i12

.thread.i12:                                      ; preds = %15
  tail call void @free(ptr noundef nonnull %17) #17
  %18 = load ptr, ptr %12, align 8, !tbaa !18
  %19 = getelementptr inbounds nuw i8, ptr %18, i64 8
  store ptr null, ptr %19, align 8, !tbaa !17
  br label %20

20:                                               ; preds = %.thread.i12, %15
  %21 = phi ptr [ %18, %.thread.i12 ], [ %13, %15 ]
  tail call void @free(ptr noundef nonnull %21) #17
  store ptr null, ptr %12, align 8, !tbaa !18
  br label %Vec_IntFreeP.exit13

Vec_IntFreeP.exit13:                              ; preds = %Vec_IntFreeP.exit, %20
  %22 = getelementptr inbounds nuw i8, ptr %0, i64 32
  %23 = load ptr, ptr %22, align 8, !tbaa !18
  %24 = icmp eq ptr %23, null
  br i1 %24, label %Vec_IntFreeP.exit16, label %25

25:                                               ; preds = %Vec_IntFreeP.exit13
  %26 = getelementptr inbounds nuw i8, ptr %23, i64 8
  %27 = load ptr, ptr %26, align 8, !tbaa !17
  %.not.i14 = icmp eq ptr %27, null
  br i1 %.not.i14, label %30, label %.thread.i15

.thread.i15:                                      ; preds = %25
  tail call void @free(ptr noundef nonnull %27) #17
  %28 = load ptr, ptr %22, align 8, !tbaa !18
  %29 = getelementptr inbounds nuw i8, ptr %28, i64 8
  store ptr null, ptr %29, align 8, !tbaa !17
  br label %30

30:                                               ; preds = %.thread.i15, %25
  %31 = phi ptr [ %28, %.thread.i15 ], [ %23, %25 ]
  tail call void @free(ptr noundef nonnull %31) #17
  store ptr null, ptr %22, align 8, !tbaa !18
  br label %Vec_IntFreeP.exit16

Vec_IntFreeP.exit16:                              ; preds = %Vec_IntFreeP.exit13, %30
  %32 = getelementptr inbounds nuw i8, ptr %0, i64 40
  %33 = load ptr, ptr %32, align 8, !tbaa !18
  %34 = icmp eq ptr %33, null
  br i1 %34, label %Vec_IntFreeP.exit19, label %35

35:                                               ; preds = %Vec_IntFreeP.exit16
  %36 = getelementptr inbounds nuw i8, ptr %33, i64 8
  %37 = load ptr, ptr %36, align 8, !tbaa !17
  %.not.i17 = icmp eq ptr %37, null
  br i1 %.not.i17, label %40, label %.thread.i18

.thread.i18:                                      ; preds = %35
  tail call void @free(ptr noundef nonnull %37) #17
  %38 = load ptr, ptr %32, align 8, !tbaa !18
  %39 = getelementptr inbounds nuw i8, ptr %38, i64 8
  store ptr null, ptr %39, align 8, !tbaa !17
  br label %40

40:                                               ; preds = %.thread.i18, %35
  %41 = phi ptr [ %38, %.thread.i18 ], [ %33, %35 ]
  tail call void @free(ptr noundef nonnull %41) #17
  store ptr null, ptr %32, align 8, !tbaa !18
  br label %Vec_IntFreeP.exit19

Vec_IntFreeP.exit19:                              ; preds = %Vec_IntFreeP.exit16, %40
  %42 = getelementptr inbounds nuw i8, ptr %0, i64 48
  %43 = load ptr, ptr %42, align 8, !tbaa !18
  %44 = icmp eq ptr %43, null
  br i1 %44, label %Vec_IntFreeP.exit22, label %45

45:                                               ; preds = %Vec_IntFreeP.exit19
  %46 = getelementptr inbounds nuw i8, ptr %43, i64 8
  %47 = load ptr, ptr %46, align 8, !tbaa !17
  %.not.i20 = icmp eq ptr %47, null
  br i1 %.not.i20, label %50, label %.thread.i21

.thread.i21:                                      ; preds = %45
  tail call void @free(ptr noundef nonnull %47) #17
  %48 = load ptr, ptr %42, align 8, !tbaa !18
  %49 = getelementptr inbounds nuw i8, ptr %48, i64 8
  store ptr null, ptr %49, align 8, !tbaa !17
  br label %50

50:                                               ; preds = %.thread.i21, %45
  %51 = phi ptr [ %48, %.thread.i21 ], [ %43, %45 ]
  tail call void @free(ptr noundef nonnull %51) #17
  store ptr null, ptr %42, align 8, !tbaa !18
  br label %Vec_IntFreeP.exit22

Vec_IntFreeP.exit22:                              ; preds = %Vec_IntFreeP.exit19, %50
  %52 = getelementptr inbounds nuw i8, ptr %0, i64 64
  %53 = load ptr, ptr %52, align 8, !tbaa !27
  %54 = icmp eq ptr %53, null
  br i1 %54, label %Vec_PtrFreeP.exit, label %55

55:                                               ; preds = %Vec_IntFreeP.exit22
  %56 = getelementptr inbounds nuw i8, ptr %53, i64 8
  %57 = load ptr, ptr %56, align 8, !tbaa !24
  %.not.i23 = icmp eq ptr %57, null
  br i1 %.not.i23, label %60, label %.thread.i24

.thread.i24:                                      ; preds = %55
  tail call void @free(ptr noundef nonnull %57) #17
  %58 = load ptr, ptr %52, align 8, !tbaa !27
  %59 = getelementptr inbounds nuw i8, ptr %58, i64 8
  store ptr null, ptr %59, align 8, !tbaa !24
  br label %60

60:                                               ; preds = %.thread.i24, %55
  %61 = phi ptr [ %58, %.thread.i24 ], [ %53, %55 ]
  tail call void @free(ptr noundef nonnull %61) #17
  store ptr null, ptr %52, align 8, !tbaa !27
  br label %Vec_PtrFreeP.exit

Vec_PtrFreeP.exit:                                ; preds = %Vec_IntFreeP.exit22, %60
  %62 = getelementptr inbounds nuw i8, ptr %0, i64 72
  %63 = load ptr, ptr %62, align 8, !tbaa !18
  %64 = icmp eq ptr %63, null
  br i1 %64, label %72, label %65

65:                                               ; preds = %Vec_PtrFreeP.exit
  %66 = getelementptr inbounds nuw i8, ptr %63, i64 8
  %67 = load ptr, ptr %66, align 8, !tbaa !17
  %.not.i25 = icmp eq ptr %67, null
  br i1 %.not.i25, label %70, label %.thread.i26

.thread.i26:                                      ; preds = %65
  tail call void @free(ptr noundef nonnull %67) #17
  %68 = load ptr, ptr %62, align 8, !tbaa !18
  %69 = getelementptr inbounds nuw i8, ptr %68, i64 8
  store ptr null, ptr %69, align 8, !tbaa !17
  br label %70

70:                                               ; preds = %.thread.i26, %65
  %71 = phi ptr [ %68, %.thread.i26 ], [ %63, %65 ]
  tail call void @free(ptr noundef nonnull %71) #17
  store ptr null, ptr %62, align 8, !tbaa !18
  br label %72

72:                                               ; preds = %Vec_PtrFreeP.exit, %70
  %73 = getelementptr inbounds nuw i8, ptr %0, i64 56
  %74 = load ptr, ptr %73, align 8, !tbaa !20
  %75 = tail call i32 @Cudd_CheckZeroRef(ptr noundef %74) #17
  %76 = tail call i32 (ptr, ...) @printf(ptr noundef nonnull dereferenceable(1) @.str, i32 noundef %75)
  %77 = load ptr, ptr %73, align 8, !tbaa !20
  tail call void @Cudd_Quit(ptr noundef %77) #17
  tail call void @free(ptr noundef nonnull %0) #17
  ret void
}